; ModuleID = '21/1857.c'
source_filename = "21/1857.c"
target datalayout = "e-m:e-p270:32:32-p271:32:32-p272:64:64-i64:64-f80:128-n8:16:32:64-S128"
target triple = "x86_64-pc-linux-gnu"

@.str = private unnamed_addr constant [3 x i8] c"%d\00", align 1
@.str.1 = private unnamed_addr constant [4 x i8] c"%d\0A\00", align 1
@.str.2 = private unnamed_addr constant [7 x i8] c"%d,%d\0A\00", align 1

; Function Attrs: noinline nounwind uwtable
define dso_local void @main() #0 {
  %1 = alloca [300 x i32], align 16
  %2 = alloca i32, align 4
  %3 = alloca i32, align 4
  %4 = alloca i32, align 4
  %5 = alloca i32, align 4
  %6 = alloca float, align 4
  %7 = alloca float, align 4
  %8 = alloca float, align 4
  %9 = alloca float, align 4
  %10 = bitcast [300 x i32]* %1 to i8*
  call void @llvm.memset.p0i8.i64(i8* align 16 %10, i8 0, i64 1200, i1 false)
  store float 0.000000e+00, float* %6, align 4
  %11 = call i32 (i8*, ...) @__isoc99_scanf(i8* getelementptr inbounds ([3 x i8], [3 x i8]* @.str, i64 0, i64 0), i32* %2)
  store i32 0, i32* %3, align 4
  br label %12

12:                                               ; preds = %28, %0
  %13 = load i32, i32* %3, align 4
  %14 = load i32, i32* %2, align 4
  %15 = icmp slt i32 %13, %14
  br i1 %15, label %16, label %31

16:                                               ; preds = %12
  %17 = load i32, i32* %3, align 4
  %18 = sext i32 %17 to i64
  %19 = getelementptr inbounds [300 x i32], [300 x i32]* %1, i64 0, i64 %18
  %20 = call i32 (i8*, ...) @__isoc99_scanf(i8* getelementptr inbounds ([3 x i8], [3 x i8]* @.str, i64 0, i64 0), i32* %19)
  %21 = load float, float* %6, align 4
  %22 = load i32, i32* %3, align 4
  %23 = sext i32 %22 to i64
  %24 = getelementptr inbounds [300 x i32], [300 x i32]* %1, i64 0, i64 %23
  %25 = load i32, i32* %24, align 4
  %26 = sitofp i32 %25 to float
  %27 = fadd float %21, %26
  store float %27, float* %6, align 4
  br label %28

28:                                               ; preds = %16
  %29 = load i32, i32* %3, align 4
  %30 = add nsw i32 %29, 1
  store i32 %30, i32* %3, align 4
  br label %12

31:                                               ; preds = %12
  %32 = load float, float* %6, align 4
  %33 = load i32, i32* %2, align 4
  %34 = sitofp i32 %33 to float
  %35 = fdiv float %32, %34
  store float %35, float* %7, align 4
  %36 = getelementptr inbounds [300 x i32], [300 x i32]* %1, i64 0, i64 0
  %37 = load i32, i32* %36, align 16
  store i32 %37, i32* %4, align 4
  %38 = getelementptr inbounds [300 x i32], [300 x i32]* %1, i64 0, i64 0
  %39 = load i32, i32* %38, align 16
  store i32 %39, i32* %5, align 4
  store i32 0, i32* %3, align 4
  br label %40

40:                                               ; preds = %69, %31
  %41 = load i32, i32* %3, align 4
  %42 = load i32, i32* %2, align 4
  %43 = icmp slt i32 %41, %42
  br i1 %43, label %44, label %72

44:                                               ; preds = %40
  %45 = load i32, i32* %3, align 4
  %46 = sext i32 %45 to i64
  %47 = getelementptr inbounds [300 x i32], [300 x i32]* %1, i64 0, i64 %46
  %48 = load i32, i32* %47, align 4
  %49 = load i32, i32* %4, align 4
  %50 = icmp slt i32 %48, %49
  br i1 %50, label %51, label %56

51:                                               ; preds = %44
  %52 = load i32, i32* %3, align 4
  %53 = sext i32 %52 to i64
  %54 = getelementptr inbounds [300 x i32], [300 x i32]* %1, i64 0, i64 %53
  %55 = load i32, i32* %54, align 4
  store i32 %55, i32* %4, align 4
  br label %56

56:                                               ; preds = %51, %44
  %57 = load i32, i32* %3, align 4
  %58 = sext i32 %57 to i64
  %59 = getelementptr inbounds [300 x i32], [300 x i32]* %1, i64 0, i64 %58
  %60 = load i32, i32* %59, align 4
  %61 = load i32, i32* %5, align 4
  %62 = icmp sgt i32 %60, %61
  br i1 %62, label %63, label %68

63:                                               ; preds = %56
  %64 = load i32, i32* %3, align 4
  %65 = sext i32 %64 to i64
  %66 = getelementptr inbounds [300 x i32], [300 x i32]* %1, i64 0, i64 %65
  %67 = load i32, i32* %66, align 4
  store i32 %67, i32* %5, align 4
  br label %68

68:                                               ; preds = %63, %56
  br label %69

69:                                               ; preds = %68
  %70 = load i32, i32* %3, align 4
  %71 = add nsw i32 %70, 1
  store i32 %71, i32* %3, align 4
  br label %40

72:                                               ; preds = %40
  %73 = load float, float* %7, align 4
  %74 = load i32, i32* %4, align 4
  %75 = sitofp i32 %74 to float
  %76 = fsub float %73, %75
  store float %76, float* %8, align 4
  %77 = load i32, i32* %5, align 4
  %78 = sitofp i32 %77 to float
  %79 = load float, float* %7, align 4
  %80 = fsub float %78, %79
  store float %80, float* %9, align 4
  %81 = load float, float* %8, align 4
  %82 = load float, float* %9, align 4
  %83 = fcmp ogt float %81, %82
  br i1 %83, label %84, label %87

84:                                               ; preds = %72
  %85 = load i32, i32* %4, align 4
  %86 = call i32 (i8*, ...) @printf(i8* getelementptr inbounds ([4 x i8], [4 x i8]* @.str.1, i64 0, i64 0), i32 %85)
  br label %99

87:                                               ; preds = %72
  %88 = load float, float* %8, align 4
  %89 = load float, float* %9, align 4
  %90 = fcmp olt float %88, %89
  br i1 %90, label %91, label %94

91:                                               ; preds = %87
  %92 = load i32, i32* %5, align 4
  %93 = call i32 (i8*, ...) @printf(i8* getelementptr inbounds ([4 x i8], [4 x i8]* @.str.1, i64 0, i64 0), i32 %92)
  br label %98

94:                                               ; preds = %87
  %95 = load i32, i32* %4, align 4
  %96 = load i32, i32* %5, align 4
  %97 = call i32 (i8*, ...) @printf(i8* getelementptr inbounds ([7 x i8], [7 x i8]* @.str.2, i64 0, i64 0), i32 %95, i32 %96)
  br label %98

98:                                               ; preds = %94, %91
  br label %99

99:                                               ; preds = %98, %84
  ret void
}

; Function Attrs: argmemonly nounwind willreturn
declare void @llvm.memset.p0i8.i64(i8* nocapture writeonly, i8, i64, i1 immarg) #1

declare dso_local i32 @__isoc99_scanf(i8*, ...) #2

declare dso_local i32 @printf(i8*, ...) #2


!llvm.module.flags = !{!0}
!llvm.ident = !{!1}

!0 = !{i32 1, !"wchar_size", i32 4}
!1 = !{!"clang version 10.0.0-4ubuntu1 "}
